target datalayout = "e-m:e-p270:32:32-p271:32:32-p272:64:64-i64:64-i128:128-f80:128-n8:16:32:64-S128"
target triple = "x86_64-pc-linux-gnu"

@_ZTIN3g2o10HyperGraph4EdgeE = external constant ptr

; Function Attrs: mustprogress uwtable
define noundef zeroext i1 @_ZN3g2o16OptimizableGraph7addEdgeEPNS_10HyperGraph4EdgeE(ptr noundef nonnull align 8 dereferenceable(288) %0, ptr noundef %1) unnamed_addr #6 align 2 {
  %3 = alloca i1, align 1
  %4 = alloca ptr, align 8
  %5 = alloca ptr, align 8
  %6 = alloca ptr, align 8
  %7 = alloca i32, align 4
  store ptr %0, ptr %4, align 8, !tbaa !111
  store ptr %1, ptr %5, align 8, !tbaa !161
  %8 = load ptr, ptr %4, align 8
  call void @llvm.lifetime.start.p0(i64 8, ptr %6) #3
  %9 = load ptr, ptr %5, align 8, !tbaa !161
  %10 = icmp eq ptr %9, null
  br i1 %10, label %13, label %11

11:                                               ; preds = %2
  %12 = call ptr @__dynamic_cast(ptr %9, ptr @_ZTIN3g2o10HyperGraph4EdgeE, ptr @_ZTIN3g2o16OptimizableGraph4EdgeE, i64 0) #3
  br label %14

13:                                               ; preds = %2
  br label %14

14:                                               ; preds = %13, %11
  %15 = phi ptr [ %12, %11 ], [ null, %13 ]
  store ptr %15, ptr %6, align 8, !tbaa !55
  %16 = load ptr, ptr %6, align 8, !tbaa !55
  %17 = icmp ne ptr %16, null
  br i1 %17, label %19, label %18

18:                                               ; preds = %14
  store i1 false, ptr %3, align 1
  store i32 1, ptr %7, align 4
  br label %22

19:                                               ; preds = %14
  %20 = load ptr, ptr %6, align 8, !tbaa !55
  %21 = call noundef zeroext i1 @_ZN3g2o16OptimizableGraph7addEdgeEPNS0_4EdgeE(ptr noundef nonnull align 8 dereferenceable(288) %8, ptr noundef %20)
  store i1 %21, ptr %3, align 1
  store i32 1, ptr %7, align 4
  br label %22

22:                                               ; preds = %19, %18
  call void @llvm.lifetime.end.p0(i64 8, ptr %6) #3
  %23 = load i1, ptr %3, align 1
  ret i1 %23
}