; Function Attrs: mustprogress uwtable
define noundef zeroext i1 @_ZN3g2o16OptimizableGraph7addEdgeEPNS_10HyperGraph4EdgeE(ptr noundef nonnull align 8 dereferenceable(288) %0, ptr noundef %1) unnamed_addr #4 align 2 {
  %3 = icmp eq ptr %1, null
  br i1 %3, label %.thread, label %4

4:                                                ; preds = %2
  %5 = tail call ptr @__dynamic_cast(ptr nonnull %1, ptr nonnull @_ZTIN3g2o10HyperGraph4EdgeE, ptr nonnull @_ZTIN3g2o16OptimizableGraph4EdgeE, i64 0) #45
  %.not = icmp eq ptr %5, null
  br i1 %.not, label %.thread, label %6

6:                                                ; preds = %4
  %7 = tail call noundef zeroext i1 @_ZN3g2o16OptimizableGraph7addEdgeEPNS0_4EdgeE(ptr noundef nonnull align 8 dereferenceable(288) %0, ptr noundef nonnull %5)
  br label %.thread

.thread:                                          ; preds = %2, %4, %6
  %.0 = phi i1 [ %7, %6 ], [ false, %4 ], [ false, %2 ]
  ret i1 %.0
}